target datalayout = "e-m:e-p270:32:32-p271:32:32-p272:64:64-i64:64-i128:128-f80:128-n8:16:32:64-S128"
target triple = "x86_64-pc-linux-gnu"

%"class.std::__cxx11::basic_string" = type { %"struct.std::__cxx11::basic_string<char>::_Alloc_hider", i64, %union.anon.15 }
%"struct.std::__cxx11::basic_string<char>::_Alloc_hider" = type { ptr }
%union.anon.15 = type { i64, [8 x i8] }
%"class.OpenImageIO::v3_1_0::Filesystem::IOProxy" = type { ptr, %"class.std::__cxx11::basic_string", i64, i32, %"class.std::__cxx11::basic_string" }

; Function Attrs: inlinehint mustprogress nounwind uwtable
define linkonce_odr hidden noundef zeroext i16 @_ZN11OpenImageIO6v3_1_08byteswapItEET_S2_(i16 noundef zeroext %0) #4 comdat {
  %2 = alloca i16, align 2
  store i16 %0, ptr %2, align 2, !tbaa !110
  %3 = load i16, ptr %2, align 2, !tbaa !110
  %4 = call i16 @llvm.bswap.i16(i16 %3)
  ret i16 %4
}

; Function Attrs: inlinehint mustprogress uwtable
define linkonce_odr hidden void @_ZN11OpenImageIO6v3_1_011swap_endianItEEvPT_i(ptr noundef %0, i32 noundef %1) #13 comdat {
  %3 = alloca ptr, align 8
  %4 = alloca i32, align 4
  %5 = alloca i32, align 4
  store ptr %0, ptr %3, align 8, !tbaa !114
  store i32 %1, ptr %4, align 4, !tbaa !22
  call void @llvm.lifetime.start.p0(i64 4, ptr %5) #3
  store i32 0, ptr %5, align 4, !tbaa !22
  br label %6

6:                                                ; preds = %22, %2
  %7 = load i32, ptr %5, align 4, !tbaa !22
  %8 = load i32, ptr %4, align 4, !tbaa !22
  %9 = icmp slt i32 %7, %8
  br i1 %9, label %11, label %10

10:                                               ; preds = %6
  call void @llvm.lifetime.end.p0(i64 4, ptr %5) #3
  br label %25

11:                                               ; preds = %6
  %12 = load ptr, ptr %3, align 8, !tbaa !114
  %13 = load i32, ptr %5, align 4, !tbaa !22
  %14 = sext i32 %13 to i64
  %15 = getelementptr inbounds i16, ptr %12, i64 %14
  %16 = load i16, ptr %15, align 2, !tbaa !110
  %17 = call noundef zeroext i16 @_ZN11OpenImageIO6v3_1_08byteswapItEET_S2_(i16 noundef zeroext %16)
  %18 = load ptr, ptr %3, align 8, !tbaa !114
  %19 = load i32, ptr %5, align 4, !tbaa !22
  %20 = sext i32 %19 to i64
  %21 = getelementptr inbounds i16, ptr %18, i64 %20
  store i16 %17, ptr %21, align 2, !tbaa !110
  br label %22

22:                                               ; preds = %11
  %23 = load i32, ptr %5, align 4, !tbaa !22
  %24 = add nsw i32 %23, 1
  store i32 %24, ptr %5, align 4, !tbaa !22
  br label %6, !llvm.loop !115

25:                                               ; preds = %10
  ret void
}

; Function Attrs: alwaysinline mustprogress nounwind uwtable
define linkonce_odr hidden noundef zeroext i1 @_ZN11OpenImageIO6v3_1_012littleendianEv() #12 comdat {
  ret i1 true
}

; Function Attrs: mustprogress nounwind uwtable
define linkonce_odr noundef i32 @_ZNK11OpenImageIO6v3_1_010Filesystem7IOProxy4modeEv(ptr noundef nonnull align 8 dereferenceable(88) %0) #7 comdat align 2 {
  %2 = alloca ptr, align 8
  store ptr %0, ptr %2, align 8, !tbaa !107
  %3 = load ptr, ptr %2, align 8
  %4 = getelementptr inbounds nuw %"class.OpenImageIO::v3_1_0::Filesystem::IOProxy", ptr %3, i32 0, i32 3
  %5 = load i32, ptr %4, align 8, !tbaa !111
  ret i32 %5
}

; Function Attrs: mustprogress uwtable
define hidden noundef zeroext i1 @_ZNK11OpenImageIO6v3_1_09TIFFInput10valid_fileEPNS0_10Filesystem7IOProxyE(ptr noundef nonnull align 8 dereferenceable(384) %0, ptr noundef %1) unnamed_addr #6 align 2 {
  %3 = alloca i1, align 1
  %4 = alloca ptr, align 8
  %5 = alloca ptr, align 8
  %6 = alloca [2 x i16], align 2
  %7 = alloca i64, align 8
  %8 = alloca i32, align 4
  store ptr %0, ptr %4, align 8, !tbaa !24
  store ptr %1, ptr %5, align 8, !tbaa !107
  %9 = load ptr, ptr %5, align 8, !tbaa !107
  %10 = icmp ne ptr %9, null
  br i1 %10, label %11, label %15

11:                                               ; preds = %2
  %12 = load ptr, ptr %5, align 8, !tbaa !107
  %13 = call noundef i32 @_ZNK11OpenImageIO6v3_1_010Filesystem7IOProxy4modeEv(ptr noundef nonnull align 8 dereferenceable(88) %12)
  %14 = icmp ne i32 %13, 114
  br i1 %14, label %15, label %16

15:                                               ; preds = %11, %2
  store i1 false, ptr %3, align 1
  br label %61

16:                                               ; preds = %11
  call void @llvm.lifetime.start.p0(i64 4, ptr %6) #3
  call void @llvm.memset.p0.i64(ptr align 2 %6, i8 0, i64 4, i1 false)
  call void @llvm.lifetime.start.p0(i64 8, ptr %7) #3
  %17 = load ptr, ptr %5, align 8, !tbaa !107
  %18 = getelementptr inbounds [2 x i16], ptr %6, i64 0, i64 0
  %19 = load ptr, ptr %17, align 8, !tbaa !26
  %20 = getelementptr inbounds ptr, ptr %19, i64 9
  %21 = load ptr, ptr %20, align 8
  %22 = call noundef i64 %21(ptr noundef nonnull align 8 dereferenceable(88) %17, ptr noundef %18, i64 noundef 4, i64 noundef 0)
  store i64 %22, ptr %7, align 8, !tbaa !109
  %23 = load i64, ptr %7, align 8, !tbaa !109
  %24 = icmp ne i64 %23, 4
  br i1 %24, label %25, label %26

25:                                               ; preds = %16
  store i1 false, ptr %3, align 1
  store i32 1, ptr %8, align 4
  br label %60

26:                                               ; preds = %16
  %27 = getelementptr inbounds [2 x i16], ptr %6, i64 0, i64 0
  %28 = load i16, ptr %27, align 2, !tbaa !110
  %29 = zext i16 %28 to i32
  %30 = icmp ne i32 %29, 18761
  br i1 %30, label %31, label %37

31:                                               ; preds = %26
  %32 = getelementptr inbounds [2 x i16], ptr %6, i64 0, i64 0
  %33 = load i16, ptr %32, align 2, !tbaa !110
  %34 = zext i16 %33 to i32
  %35 = icmp ne i32 %34, 19789
  br i1 %35, label %36, label %37

36:                                               ; preds = %31
  store i1 false, ptr %3, align 1
  store i32 1, ptr %8, align 4
  br label %60

37:                                               ; preds = %31, %26
  %38 = getelementptr inbounds [2 x i16], ptr %6, i64 0, i64 0
  %39 = load i16, ptr %38, align 2, !tbaa !110
  %40 = zext i16 %39 to i32
  %41 = icmp eq i32 %40, 18761
  %42 = zext i1 %41 to i32
  %43 = call noundef zeroext i1 @_ZN11OpenImageIO6v3_1_012littleendianEv() #3
  %44 = zext i1 %43 to i32
  %45 = icmp ne i32 %42, %44
  br i1 %45, label %46, label %48

46:                                               ; preds = %37
  %47 = getelementptr inbounds [2 x i16], ptr %6, i64 0, i64 1
  call void @_ZN11OpenImageIO6v3_1_011swap_endianItEEvPT_i(ptr noundef %47, i32 noundef 1)
  br label %48

48:                                               ; preds = %46, %37
  %49 = getelementptr inbounds [2 x i16], ptr %6, i64 0, i64 1
  %50 = load i16, ptr %49, align 2, !tbaa !110
  %51 = zext i16 %50 to i32
  %52 = icmp eq i32 %51, 42
  br i1 %52, label %58, label %53

53:                                               ; preds = %48
  %54 = getelementptr inbounds [2 x i16], ptr %6, i64 0, i64 1
  %55 = load i16, ptr %54, align 2, !tbaa !110
  %56 = zext i16 %55 to i32
  %57 = icmp eq i32 %56, 43
  br label %58

58:                                               ; preds = %53, %48
  %59 = phi i1 [ true, %48 ], [ %57, %53 ]
  store i1 %59, ptr %3, align 1
  store i32 1, ptr %8, align 4
  br label %60

60:                                               ; preds = %58, %36, %25
  call void @llvm.lifetime.end.p0(i64 8, ptr %7) #3
  call void @llvm.lifetime.end.p0(i64 4, ptr %6) #3
  br label %61

61:                                               ; preds = %60, %15
  %62 = load i1, ptr %3, align 1
  ret i1 %62
}