; Function Attrs: mustprogress uwtable
define hidden noundef zeroext i1 @_ZNK11OpenImageIO6v3_1_09TIFFInput10valid_fileEPNS0_10Filesystem7IOProxyE(ptr nonnull readnone align 8 captures(none) %0, ptr noundef %1) unnamed_addr #5 align 2 {
  %3 = alloca [2 x i16], align 4
  %.not = icmp eq ptr %1, null
  br i1 %.not, label %21, label %4

4:                                                ; preds = %2
  %5 = getelementptr inbounds nuw i8, ptr %1, i64 48
  %6 = load i32, ptr %5, align 8, !tbaa !92
  %.not8 = icmp eq i32 %6, 114
  br i1 %.not8, label %7, label %21

7:                                                ; preds = %4
  call void @llvm.lifetime.start.p0(i64 4, ptr nonnull %3) #7
  store i32 0, ptr %3, align 4
  %8 = load ptr, ptr %1, align 8, !tbaa !24
  %9 = getelementptr inbounds nuw i8, ptr %8, i64 72
  %10 = load ptr, ptr %9, align 8
  %11 = call noundef i64 %10(ptr noundef nonnull align 8 dereferenceable(88) %1, ptr noundef nonnull %3, i64 noundef 4, i64 noundef 0)
  %.not9 = icmp eq i64 %11, 4
  br i1 %.not9, label %12, label %20

12:                                               ; preds = %7
  %13 = load i16, ptr %3, align 4, !tbaa !95
  switch i16 %13, label %20 [
    i16 18761, label %._ZN11OpenImageIO6v3_1_011swap_endianItEEvPT_i.exit_crit_edge
    i16 19789, label %.lr.ph.i
  ]

._ZN11OpenImageIO6v3_1_011swap_endianItEEvPT_i.exit_crit_edge: ; preds = %12
  %.phi.trans.insert = getelementptr inbounds nuw i8, ptr %3, i64 2
  %.pre = load i16, ptr %.phi.trans.insert, align 2, !tbaa !95
  br label %_ZN11OpenImageIO6v3_1_011swap_endianItEEvPT_i.exit

.lr.ph.i:                                         ; preds = %12
  %14 = getelementptr inbounds nuw i8, ptr %3, i64 2
  %15 = load i16, ptr %14, align 2, !tbaa !95
  %16 = call noundef i16 @llvm.bswap.i16(i16 %15)
  br label %_ZN11OpenImageIO6v3_1_011swap_endianItEEvPT_i.exit

_ZN11OpenImageIO6v3_1_011swap_endianItEEvPT_i.exit: ; preds = %._ZN11OpenImageIO6v3_1_011swap_endianItEEvPT_i.exit_crit_edge, %.lr.ph.i
  %17 = phi i16 [ %.pre, %._ZN11OpenImageIO6v3_1_011swap_endianItEEvPT_i.exit_crit_edge ], [ %16, %.lr.ph.i ]
  %18 = and i16 %17, -2
  %19 = icmp eq i16 %18, 42
  br label %20

20:                                               ; preds = %12, %7, %_ZN11OpenImageIO6v3_1_011swap_endianItEEvPT_i.exit
  %.1 = phi i1 [ %19, %_ZN11OpenImageIO6v3_1_011swap_endianItEEvPT_i.exit ], [ false, %7 ], [ false, %12 ]
  call void @llvm.lifetime.end.p0(i64 4, ptr nonnull %3) #7
  br label %21

21:                                               ; preds = %2, %4, %20
  %.0 = phi i1 [ %.1, %20 ], [ false, %4 ], [ false, %2 ]
  ret i1 %.0
}